; Function Attrs: mustprogress uwtable
define hidden noundef ptr @_ZN2cv8tinyxml211XMLDocument14NewDeclarationEPKc(ptr noundef nonnull align 8 dereferenceable(640) %0, ptr noundef readonly %1) local_unnamed_addr #4 align 2 {
_ZN2cv8tinyxml27XMLNode8SetValueEPKcb.exit:
  %2 = getelementptr inbounds nuw i8, ptr %0, i64 512
  %3 = tail call noundef ptr @_ZN2cv8tinyxml28MemPoolTILi88EE5AllocEv(ptr noundef nonnull align 8 dereferenceable(128) %2)
  %4 = getelementptr inbounds nuw i8, ptr %3, i64 8
  store ptr %0, ptr %4, align 8, !tbaa !33
  %5 = getelementptr inbounds nuw i8, ptr %3, i64 16
  store ptr null, ptr %5, align 8, !tbaa !38
  %6 = getelementptr inbounds nuw i8, ptr %3, i64 24
  %7 = getelementptr inbounds nuw i8, ptr %3, i64 32
  %8 = getelementptr inbounds nuw i8, ptr %3, i64 48
  tail call void @llvm.memset.p0.i64(ptr noundef nonnull align 8 dereferenceable(32) %8, i8 0, i64 32, i1 false)
  store ptr getelementptr inbounds nuw inrange(-16, 144) (i8, ptr @_ZTVN2cv8tinyxml214XMLDeclarationE, i64 16), ptr %3, align 8, !tbaa !39
  %9 = getelementptr inbounds nuw i8, ptr %3, i64 80
  store ptr %2, ptr %9, align 8, !tbaa !41
  %.not = icmp eq ptr %1, null
  %10 = select i1 %.not, ptr @.str.17, ptr %1
  store i32 0, ptr %6, align 8, !tbaa !3
  tail call void @llvm.memset.p0.i64(ptr noundef nonnull align 8 dereferenceable(16) %7, i8 0, i64 16, i1 false)
  %11 = tail call i64 @strlen(ptr noundef nonnull readonly dereferenceable(1) %10) #26
  %12 = add i64 %11, 1
  %13 = tail call noalias noundef nonnull ptr @_Znam(i64 noundef %12) #27
  store ptr %13, ptr %7, align 8, !tbaa !10
  tail call void @llvm.memcpy.p0.p0.i64(ptr nonnull align 1 %13, ptr nonnull readonly align 1 %10, i64 %12, i1 false)
  %14 = getelementptr inbounds nuw i8, ptr %13, i64 %11
  %15 = getelementptr inbounds nuw i8, ptr %3, i64 40
  store ptr %14, ptr %15, align 8, !tbaa !11
  store i32 512, ptr %6, align 8, !tbaa !3
  ret ptr %3
}